target datalayout = "e-m:e-p270:32:32-p271:32:32-p272:64:64-i64:64-i128:128-f80:128-n8:16:32:64-S128"
target triple = "x86_64-pc-linux-gnu"

%struct.RTMPContext = type { ptr, ptr, [2 x ptr], [2 x i32], i32, i32, i32, ptr, i32, ptr, ptr, i32, i32, ptr, i32, i32, i32, %struct.RTMPPacket, i32, i64, i64, i32, i32, i32, i32, i32, [11 x i8], i32, i32, ptr, ptr, ptr, i32, i32, ptr, ptr, [42 x i8], ptr, ptr, i32, i32, i32, i32, ptr, i32, i32, i32, i32, i32, double, i32, ptr, [50 x i8], [50 x i8], [500 x i8], i32, i32 }
%struct.RTMPPacket = type { i32, i32, i32, i32, i32, ptr, i32, i32, i32 }
%union.av_intfloat64 = type { i64 }

@.str.189 = private unnamed_addr constant [11 x i8] c"onMetaData\00", align 1
@.str.194 = private unnamed_addr constant [9 x i8] c"duration\00", align 1

; Function Attrs: inlinehint nounwind willreturn memory(none) uwtable
define internal i64 @av_bswap64(i64 noundef %0) #11 {
  %2 = alloca i64, align 8
  store i64 %0, ptr %2, align 8, !tbaa !85
  %3 = load i64, ptr %2, align 8, !tbaa !85
  %4 = trunc i64 %3 to i32
  %5 = call i32 @av_bswap32(i32 noundef %4) #14
  %6 = zext i32 %5 to i64
  %7 = shl i64 %6, 32
  %8 = load i64, ptr %2, align 8, !tbaa !85
  %9 = lshr i64 %8, 32
  %10 = trunc i64 %9 to i32
  %11 = call i32 @av_bswap32(i32 noundef %10) #14
  %12 = zext i32 %11 to i64
  %13 = or i64 %7, %12
  ret i64 %13
}

; Function Attrs: alwaysinline nounwind willreturn memory(none) uwtable
define internal zeroext i16 @av_bswap16(i16 noundef zeroext %0) #9 {
  %2 = alloca i16, align 2
  store i16 %0, ptr %2, align 2, !tbaa !133
  %3 = load i16, ptr %2, align 2, !tbaa !133
  %4 = zext i16 %3 to i32
  %5 = ashr i32 %4, 8
  %6 = load i16, ptr %2, align 2, !tbaa !133
  %7 = zext i16 %6 to i32
  %8 = shl i32 %7, 8
  %9 = or i32 %5, %8
  %10 = trunc i32 %9 to i16
  store i16 %10, ptr %2, align 2, !tbaa !133
  %11 = load i16, ptr %2, align 2, !tbaa !133
  ret i16 %11
}

; Function Attrs: alwaysinline nounwind willreturn memory(none) uwtable
define internal i32 @av_bswap32(i32 noundef %0) #9 {
  %2 = alloca i32, align 4
  store i32 %0, ptr %2, align 4, !tbaa !11
  %3 = load i32, ptr %2, align 4, !tbaa !11
  %4 = shl i32 %3, 8
  %5 = and i32 %4, 65280
  %6 = load i32, ptr %2, align 4, !tbaa !11
  %7 = lshr i32 %6, 8
  %8 = and i32 %7, 255
  %9 = or i32 %5, %8
  %10 = shl i32 %9, 16
  %11 = load i32, ptr %2, align 4, !tbaa !11
  %12 = lshr i32 %11, 16
  %13 = shl i32 %12, 8
  %14 = and i32 %13, 65280
  %15 = load i32, ptr %2, align 4, !tbaa !11
  %16 = lshr i32 %15, 16
  %17 = lshr i32 %16, 8
  %18 = and i32 %17, 255
  %19 = or i32 %14, %18
  %20 = or i32 %10, %19
  ret i32 %20
}

; Function Attrs: alwaysinline nounwind uwtable
define internal void @bytestream_put_be64(ptr noundef %0, i64 noundef %1) #8 {
  %3 = alloca ptr, align 8
  %4 = alloca i64, align 8
  store ptr %0, ptr %3, align 8, !tbaa !107
  store i64 %1, ptr %4, align 8, !tbaa !85
  %5 = load i64, ptr %4, align 8, !tbaa !85
  %6 = call i64 @av_bswap64(i64 noundef %5) #14
  %7 = load ptr, ptr %3, align 8, !tbaa !107
  %8 = load ptr, ptr %7, align 8, !tbaa !9
  store i64 %6, ptr %8, align 1, !tbaa !32
  %9 = load ptr, ptr %3, align 8, !tbaa !107
  %10 = load ptr, ptr %9, align 8, !tbaa !9
  %11 = getelementptr inbounds i8, ptr %10, i64 8
  store ptr %11, ptr %9, align 8, !tbaa !9
  ret void
}

; Function Attrs: alwaysinline nounwind uwtable
define internal i64 @av_double2int(double noundef %0) #8 {
  %2 = alloca double, align 8
  %3 = alloca %union.av_intfloat64, align 8
  store double %0, ptr %2, align 8, !tbaa !101
  call void @llvm.lifetime.start.p0(i64 8, ptr %3) #12
  %4 = load double, ptr %2, align 8, !tbaa !101
  store double %4, ptr %3, align 8, !tbaa !32
  %5 = load i64, ptr %3, align 8, !tbaa !32
  call void @llvm.lifetime.end.p0(i64 8, ptr %3) #12
  ret i64 %5
}

; Function Attrs: alwaysinline nounwind uwtable
define internal void @bytestream_put_buffer(ptr noundef %0, ptr noundef %1, i32 noundef %2) #8 {
  %4 = alloca ptr, align 8
  %5 = alloca ptr, align 8
  %6 = alloca i32, align 4
  store ptr %0, ptr %4, align 8, !tbaa !107
  store ptr %1, ptr %5, align 8, !tbaa !9
  store i32 %2, ptr %6, align 4, !tbaa !11
  %7 = load ptr, ptr %4, align 8, !tbaa !107
  %8 = load ptr, ptr %7, align 8, !tbaa !9
  %9 = load ptr, ptr %5, align 8, !tbaa !9
  %10 = load i32, ptr %6, align 4, !tbaa !11
  %11 = zext i32 %10 to i64
  call void @llvm.memcpy.p0.p0.i64(ptr align 1 %8, ptr align 1 %9, i64 %11, i1 false)
  %12 = load i32, ptr %6, align 4, !tbaa !11
  %13 = load ptr, ptr %4, align 8, !tbaa !107
  %14 = load ptr, ptr %13, align 8, !tbaa !9
  %15 = zext i32 %12 to i64
  %16 = getelementptr inbounds nuw i8, ptr %14, i64 %15
  store ptr %16, ptr %13, align 8, !tbaa !9
  ret void
}

; Function Attrs: alwaysinline nounwind uwtable
define internal void @bytestream_put_be16(ptr noundef %0, i32 noundef %1) #8 {
  %3 = alloca ptr, align 8
  %4 = alloca i32, align 4
  store ptr %0, ptr %3, align 8, !tbaa !107
  store i32 %1, ptr %4, align 4, !tbaa !11
  %5 = load i32, ptr %4, align 4, !tbaa !11
  %6 = trunc i32 %5 to i16
  %7 = call zeroext i16 @av_bswap16(i16 noundef zeroext %6) #14
  %8 = load ptr, ptr %3, align 8, !tbaa !107
  %9 = load ptr, ptr %8, align 8, !tbaa !9
  store i16 %7, ptr %9, align 1, !tbaa !32
  %10 = load ptr, ptr %3, align 8, !tbaa !107
  %11 = load ptr, ptr %10, align 8, !tbaa !9
  %12 = getelementptr inbounds i8, ptr %11, i64 2
  store ptr %12, ptr %10, align 8, !tbaa !9
  ret void
}

; Function Attrs: alwaysinline nounwind uwtable
define internal void @bytestream_put_be32(ptr noundef %0, i32 noundef %1) #8 {
  %3 = alloca ptr, align 8
  %4 = alloca i32, align 4
  store ptr %0, ptr %3, align 8, !tbaa !107
  store i32 %1, ptr %4, align 4, !tbaa !11
  %5 = load i32, ptr %4, align 4, !tbaa !11
  %6 = call i32 @av_bswap32(i32 noundef %5) #14
  %7 = load ptr, ptr %3, align 8, !tbaa !107
  %8 = load ptr, ptr %7, align 8, !tbaa !9
  store i32 %6, ptr %8, align 1, !tbaa !32
  %9 = load ptr, ptr %3, align 8, !tbaa !107
  %10 = load ptr, ptr %9, align 8, !tbaa !9
  %11 = getelementptr inbounds i8, ptr %10, i64 4
  store ptr %11, ptr %9, align 8, !tbaa !9
  ret void
}

; Function Attrs: alwaysinline nounwind uwtable
define internal void @bytestream_put_be24(ptr noundef %0, i32 noundef %1) #8 {
  %3 = alloca ptr, align 8
  %4 = alloca i32, align 4
  store ptr %0, ptr %3, align 8, !tbaa !107
  store i32 %1, ptr %4, align 4, !tbaa !11
  br label %5

5:                                                ; preds = %2
  %6 = load i32, ptr %4, align 4, !tbaa !11
  %7 = trunc i32 %6 to i8
  %8 = load ptr, ptr %3, align 8, !tbaa !107
  %9 = load ptr, ptr %8, align 8, !tbaa !9
  %10 = getelementptr inbounds i8, ptr %9, i64 2
  store i8 %7, ptr %10, align 1, !tbaa !32
  %11 = load i32, ptr %4, align 4, !tbaa !11
  %12 = lshr i32 %11, 8
  %13 = trunc i32 %12 to i8
  %14 = load ptr, ptr %3, align 8, !tbaa !107
  %15 = load ptr, ptr %14, align 8, !tbaa !9
  %16 = getelementptr inbounds i8, ptr %15, i64 1
  store i8 %13, ptr %16, align 1, !tbaa !32
  %17 = load i32, ptr %4, align 4, !tbaa !11
  %18 = lshr i32 %17, 16
  %19 = trunc i32 %18 to i8
  %20 = load ptr, ptr %3, align 8, !tbaa !107
  %21 = load ptr, ptr %20, align 8, !tbaa !9
  %22 = getelementptr inbounds i8, ptr %21, i64 0
  store i8 %19, ptr %22, align 1, !tbaa !32
  br label %23

23:                                               ; preds = %5
  %24 = load ptr, ptr %3, align 8, !tbaa !107
  %25 = load ptr, ptr %24, align 8, !tbaa !9
  %26 = getelementptr inbounds i8, ptr %25, i64 3
  store ptr %26, ptr %24, align 8, !tbaa !9
  ret void
}

; Function Attrs: alwaysinline nounwind uwtable
define internal void @bytestream_put_byte(ptr noundef %0, i32 noundef %1) #8 {
  %3 = alloca ptr, align 8
  %4 = alloca i32, align 4
  store ptr %0, ptr %3, align 8, !tbaa !107
  store i32 %1, ptr %4, align 4, !tbaa !11
  br label %5

5:                                                ; preds = %2
  %6 = load i32, ptr %4, align 4, !tbaa !11
  %7 = trunc i32 %6 to i8
  %8 = load ptr, ptr %3, align 8, !tbaa !107
  %9 = load ptr, ptr %8, align 8, !tbaa !9
  %10 = getelementptr inbounds i8, ptr %9, i64 0
  store i8 %7, ptr %10, align 1, !tbaa !32
  br label %11

11:                                               ; preds = %5
  %12 = load ptr, ptr %3, align 8, !tbaa !107
  %13 = load ptr, ptr %12, align 8, !tbaa !9
  %14 = getelementptr inbounds i8, ptr %13, i64 1
  store ptr %14, ptr %12, align 8, !tbaa !9
  ret void
}

; Function Attrs: nounwind uwtable
define internal i32 @inject_fake_duration_metadata(ptr noundef %0) #0 {
  %2 = alloca i32, align 4
  %3 = alloca ptr, align 8
  %4 = alloca ptr, align 8
  %5 = alloca ptr, align 8
  %6 = alloca i32, align 4
  store ptr %0, ptr %3, align 8, !tbaa !22
  call void @llvm.lifetime.start.p0(i64 8, ptr %4) #12
  call void @llvm.lifetime.start.p0(i64 8, ptr %5) #12
  %7 = load ptr, ptr %3, align 8, !tbaa !22
  %8 = getelementptr inbounds nuw %struct.RTMPContext, ptr %7, i32 0, i32 13
  %9 = load ptr, ptr %8, align 8, !tbaa !62
  store ptr %9, ptr %5, align 8, !tbaa !9
  %10 = load ptr, ptr %3, align 8, !tbaa !22
  %11 = getelementptr inbounds nuw %struct.RTMPContext, ptr %10, i32 0, i32 14
  %12 = load i32, ptr %11, align 8, !tbaa !60
  %13 = add nsw i32 %12, 55
  %14 = sext i32 %13 to i64
  %15 = call noalias ptr @av_malloc(i64 noundef %14)
  %16 = load ptr, ptr %3, align 8, !tbaa !22
  %17 = getelementptr inbounds nuw %struct.RTMPContext, ptr %16, i32 0, i32 13
  store ptr %15, ptr %17, align 8, !tbaa !62
  %18 = icmp ne ptr %15, null
  br i1 %18, label %23, label %19

19:                                               ; preds = %1
  %20 = load ptr, ptr %5, align 8, !tbaa !9
  %21 = load ptr, ptr %3, align 8, !tbaa !22
  %22 = getelementptr inbounds nuw %struct.RTMPContext, ptr %21, i32 0, i32 13
  store ptr %20, ptr %22, align 8, !tbaa !62
  store i32 -12, ptr %2, align 4
  store i32 1, ptr %6, align 4
  br label %52

23:                                               ; preds = %1
  %24 = load ptr, ptr %3, align 8, !tbaa !22
  %25 = getelementptr inbounds nuw %struct.RTMPContext, ptr %24, i32 0, i32 13
  %26 = load ptr, ptr %25, align 8, !tbaa !62
  %27 = load ptr, ptr %5, align 8, !tbaa !9
  call void @llvm.memcpy.p0.p0.i64(ptr align 1 %26, ptr align 1 %27, i64 13, i1 false)
  %28 = load ptr, ptr %3, align 8, !tbaa !22
  %29 = getelementptr inbounds nuw %struct.RTMPContext, ptr %28, i32 0, i32 13
  %30 = load ptr, ptr %29, align 8, !tbaa !62
  %31 = getelementptr inbounds i8, ptr %30, i64 13
  %32 = getelementptr inbounds i8, ptr %31, i64 55
  %33 = load ptr, ptr %5, align 8, !tbaa !9
  %34 = getelementptr inbounds i8, ptr %33, i64 13
  %35 = load ptr, ptr %3, align 8, !tbaa !22
  %36 = getelementptr inbounds nuw %struct.RTMPContext, ptr %35, i32 0, i32 14
  %37 = load i32, ptr %36, align 8, !tbaa !60
  %38 = sub nsw i32 %37, 13
  %39 = sext i32 %38 to i64
  call void @llvm.memcpy.p0.p0.i64(ptr align 1 %32, ptr align 1 %34, i64 %39, i1 false)
  %40 = load ptr, ptr %3, align 8, !tbaa !22
  %41 = getelementptr inbounds nuw %struct.RTMPContext, ptr %40, i32 0, i32 14
  %42 = load i32, ptr %41, align 8, !tbaa !60
  %43 = add nsw i32 %42, 55
  store i32 %43, ptr %41, align 8, !tbaa !60
  call void @av_freep(ptr noundef %5)
  %44 = load ptr, ptr %3, align 8, !tbaa !22
  %45 = getelementptr inbounds nuw %struct.RTMPContext, ptr %44, i32 0, i32 13
  %46 = load ptr, ptr %45, align 8, !tbaa !62
  %47 = getelementptr inbounds i8, ptr %46, i64 13
  store ptr %47, ptr %4, align 8, !tbaa !9
  call void @bytestream_put_byte(ptr noundef %4, i32 noundef 18)
  call void @bytestream_put_be24(ptr noundef %4, i32 noundef 40)
  call void @bytestream_put_be24(ptr noundef %4, i32 noundef 0)
  call void @bytestream_put_be32(ptr noundef %4, i32 noundef 0)
  call void @bytestream_put_byte(ptr noundef %4, i32 noundef 2)
  call void @bytestream_put_be16(ptr noundef %4, i32 noundef 10)
  call void @bytestream_put_buffer(ptr noundef %4, ptr noundef @.str.189, i32 noundef 10)
  call void @bytestream_put_byte(ptr noundef %4, i32 noundef 8)
  call void @bytestream_put_be32(ptr noundef %4, i32 noundef 1)
  call void @bytestream_put_be16(ptr noundef %4, i32 noundef 8)
  call void @bytestream_put_buffer(ptr noundef %4, ptr noundef @.str.194, i32 noundef 8)
  call void @bytestream_put_byte(ptr noundef %4, i32 noundef 0)
  %48 = load ptr, ptr %3, align 8, !tbaa !22
  %49 = getelementptr inbounds nuw %struct.RTMPContext, ptr %48, i32 0, i32 49
  %50 = load double, ptr %49, align 8, !tbaa !52
  %51 = call i64 @av_double2int(double noundef %50)
  call void @bytestream_put_be64(ptr noundef %4, i64 noundef %51)
  call void @bytestream_put_be16(ptr noundef %4, i32 noundef 0)
  call void @bytestream_put_byte(ptr noundef %4, i32 noundef 9)
  call void @bytestream_put_be32(ptr noundef %4, i32 noundef 51)
  store i32 0, ptr %2, align 4
  store i32 1, ptr %6, align 4
  br label %52

52:                                               ; preds = %23, %19
  call void @llvm.lifetime.end.p0(i64 8, ptr %5) #12
  call void @llvm.lifetime.end.p0(i64 8, ptr %4) #12
  %53 = load i32, ptr %2, align 4
  ret i32 %53
}