; Function Attrs: nounwind uwtable
define internal fastcc range(i32 -12, 1) i32 @inject_fake_duration_metadata(ptr noundef captures(none) %0) unnamed_addr #0 {
  %2 = alloca ptr, align 8
  call void @llvm.lifetime.start.p0(i64 8, ptr nonnull %2) #11
  %3 = getelementptr inbounds nuw i8, ptr %0, i64 96
  %4 = load ptr, ptr %3, align 8, !tbaa !87
  store ptr %4, ptr %2, align 8, !tbaa !31
  %5 = getelementptr inbounds nuw i8, ptr %0, i64 104
  %6 = load i32, ptr %5, align 8, !tbaa !85
  %7 = add nsw i32 %6, 55
  %8 = sext i32 %7 to i64
  %9 = tail call noalias ptr @av_malloc(i64 noundef %8) #11
  store ptr %9, ptr %3, align 8, !tbaa !87
  %.not = icmp eq ptr %9, null
  br i1 %.not, label %10, label %11

10:                                               ; preds = %1
  store ptr %4, ptr %3, align 8, !tbaa !87
  br label %39

11:                                               ; preds = %1
  tail call void @llvm.memcpy.p0.p0.i64(ptr noundef nonnull align 1 dereferenceable(13) %9, ptr noundef nonnull align 1 dereferenceable(13) %4, i64 13, i1 false)
  %12 = getelementptr inbounds nuw i8, ptr %9, i64 68
  %13 = getelementptr inbounds nuw i8, ptr %4, i64 13
  %14 = load i32, ptr %5, align 8, !tbaa !85
  %15 = add nsw i32 %14, -13
  %16 = sext i32 %15 to i64
  tail call void @llvm.memcpy.p0.p0.i64(ptr nonnull align 1 %12, ptr nonnull align 1 %13, i64 %16, i1 false)
  %17 = add nsw i32 %14, 55
  store i32 %17, ptr %5, align 8, !tbaa !85
  call void @av_freep(ptr noundef nonnull %2) #11
  %18 = load ptr, ptr %3, align 8, !tbaa !87
  %19 = getelementptr inbounds nuw i8, ptr %18, i64 13
  store i8 18, ptr %19, align 1, !tbaa !24
  %20 = getelementptr inbounds nuw i8, ptr %18, i64 14
  %21 = getelementptr inbounds nuw i8, ptr %18, i64 16
  store i8 40, ptr %21, align 1, !tbaa !24
  %22 = getelementptr inbounds nuw i8, ptr %18, i64 15
  store i8 0, ptr %22, align 1, !tbaa !24
  store i8 0, ptr %20, align 1, !tbaa !24
  %23 = getelementptr inbounds nuw i8, ptr %18, i64 17
  %24 = getelementptr inbounds nuw i8, ptr %18, i64 24
  call void @llvm.memset.p0.i64(ptr noundef nonnull align 1 dereferenceable(7) %23, i8 0, i64 7, i1 false)
  store i8 2, ptr %24, align 1, !tbaa !24
  %25 = getelementptr inbounds nuw i8, ptr %18, i64 25
  store i16 2560, ptr %25, align 1, !tbaa !24
  %26 = getelementptr inbounds nuw i8, ptr %18, i64 27
  call void @llvm.memcpy.p0.p0.i64(ptr noundef nonnull align 1 dereferenceable(10) %26, ptr noundef nonnull align 1 dereferenceable(10) @.str.189, i64 10, i1 false)
  %27 = getelementptr inbounds nuw i8, ptr %18, i64 37
  store i8 8, ptr %27, align 1, !tbaa !24
  %28 = getelementptr inbounds nuw i8, ptr %18, i64 38
  store i32 16777216, ptr %28, align 1, !tbaa !24
  %29 = getelementptr inbounds nuw i8, ptr %18, i64 42
  store i16 2048, ptr %29, align 1, !tbaa !24
  %30 = getelementptr inbounds nuw i8, ptr %18, i64 44
  store i64 7957695015158969700, ptr %30, align 1
  %31 = getelementptr inbounds nuw i8, ptr %18, i64 52
  store i8 0, ptr %31, align 1, !tbaa !24
  %32 = getelementptr inbounds nuw i8, ptr %18, i64 53
  %33 = getelementptr inbounds nuw i8, ptr %0, i64 392
  %34 = load i64, ptr %33, align 8, !tbaa !62
  %35 = call noundef i64 @llvm.bswap.i64(i64 %34)
  store i64 %35, ptr %32, align 1, !tbaa !24
  %36 = getelementptr inbounds nuw i8, ptr %18, i64 61
  store i16 0, ptr %36, align 1, !tbaa !24
  %37 = getelementptr inbounds nuw i8, ptr %18, i64 63
  store i8 9, ptr %37, align 1, !tbaa !24
  %38 = getelementptr inbounds nuw i8, ptr %18, i64 64
  store i32 855638016, ptr %38, align 1, !tbaa !24
  br label %39

39:                                               ; preds = %11, %10
  %.0 = phi i32 [ 0, %11 ], [ -12, %10 ]
  call void @llvm.lifetime.end.p0(i64 8, ptr nonnull %2) #11
  ret i32 %.0
}